target datalayout = "e-m:e-p270:32:32-p271:32:32-p272:64:64-i64:64-i128:128-f80:128-n8:16:32:64-S128"
target triple = "x86_64-pc-linux-gnu"

; Function Attrs: nounwind uwtable
define internal double @c_weighting(ptr noundef %0, double noundef %1) #1 {
  %3 = alloca ptr, align 8
  %4 = alloca double, align 8
  %5 = alloca double, align 8
  store ptr %0, ptr %3, align 8, !tbaa !159
  store double %1, ptr %4, align 8, !tbaa !94
  call void @llvm.lifetime.start.p0(i64 8, ptr %5) #12
  %6 = load double, ptr %4, align 8, !tbaa !94
  %7 = load double, ptr %4, align 8, !tbaa !94
  %8 = fmul nsz double %6, %7
  %9 = fmul nsz double 1.488400e+08, %8
  store double %9, ptr %5, align 8, !tbaa !94
  %10 = load double, ptr %4, align 8, !tbaa !94
  %11 = load double, ptr %4, align 8, !tbaa !94
  %12 = call nsz double @llvm.fmuladd.f64(double %10, double %11, double 0x407A85C28F5C28F7)
  %13 = load double, ptr %4, align 8, !tbaa !94
  %14 = load double, ptr %4, align 8, !tbaa !94
  %15 = call nsz double @llvm.fmuladd.f64(double %13, double %14, double 1.488400e+08)
  %16 = fmul nsz double %12, %15
  %17 = load double, ptr %5, align 8, !tbaa !94
  %18 = fdiv nsz double %17, %16
  store double %18, ptr %5, align 8, !tbaa !94
  %19 = load double, ptr %5, align 8, !tbaa !94
  call void @llvm.lifetime.end.p0(i64 8, ptr %5) #12
  ret double %19
}