; Function Attrs: mustprogress nofree norecurse nosync nounwind willreturn memory(none) uwtable
define internal noundef double @c_weighting(ptr readnone captures(none) %0, double noundef %1) #10 {
  %3 = fmul nsz double %1, %1
  %4 = fmul nsz double %3, 1.488400e+08
  %5 = tail call nsz double @llvm.fmuladd.f64(double %1, double %1, double 0x407A85C28F5C28F7)
  %6 = tail call nsz double @llvm.fmuladd.f64(double %1, double %1, double 1.488400e+08)
  %7 = fmul nsz double %5, %6
  %8 = fdiv nsz double %4, %7
  ret double %8
}